target datalayout = "e-m:e-p270:32:32-p271:32:32-p272:64:64-i64:64-i128:128-f80:128-n8:16:32:64-S128"
target triple = "x86_64-pc-linux-gnu"

%"class.toku::keyrange" = type <{ %struct.__toku_dbt, %struct.__toku_dbt, ptr, ptr, i8, [7 x i8] }>
%struct.__toku_dbt = type { ptr, i64, i64, i32 }

; Function Attrs: mustprogress uwtable
define void @_ZN4toku8keyrange17replace_right_keyEPK10__toku_dbt(ptr noundef nonnull align 8 dereferenceable(81) %0, ptr noundef %1) #0 align 2 {
  %3 = alloca ptr, align 8
  %4 = alloca ptr, align 8
  store ptr %0, ptr %3, align 8, !tbaa !4
  store ptr %1, ptr %4, align 8, !tbaa !9
  %5 = load ptr, ptr %3, align 8
  %6 = getelementptr inbounds nuw %"class.toku::keyrange", ptr %5, i32 0, i32 1
  call void @_Z16toku_destroy_dbtP10__toku_dbt(ptr noundef %6)
  %7 = load ptr, ptr %4, align 8, !tbaa !9
  %8 = call noundef zeroext i1 @_Z20toku_dbt_is_infinitePK10__toku_dbt(ptr noundef %7)
  br i1 %8, label %9, label %12

9:                                                ; preds = %2
  %10 = load ptr, ptr %4, align 8, !tbaa !9
  %11 = getelementptr inbounds nuw %"class.toku::keyrange", ptr %5, i32 0, i32 3
  store ptr %10, ptr %11, align 8, !tbaa !17
  br label %17

12:                                               ; preds = %2
  %13 = getelementptr inbounds nuw %"class.toku::keyrange", ptr %5, i32 0, i32 1
  %14 = load ptr, ptr %4, align 8, !tbaa !9
  %15 = call noundef ptr @_Z14toku_clone_dbtP10__toku_dbtRKS_(ptr noundef %13, ptr noundef nonnull align 8 dereferenceable(32) %14)
  %16 = getelementptr inbounds nuw %"class.toku::keyrange", ptr %5, i32 0, i32 3
  store ptr null, ptr %16, align 8, !tbaa !17
  br label %17

17:                                               ; preds = %12, %9
  %18 = getelementptr inbounds nuw %"class.toku::keyrange", ptr %5, i32 0, i32 4
  store i8 0, ptr %18, align 8, !tbaa !18
  ret void
}