; Function Attrs: mustprogress uwtable
define void @_ZN4toku8keyrange17replace_right_keyEPK10__toku_dbt(ptr noundef nonnull align 8 dereferenceable(81) %0, ptr noundef %1) local_unnamed_addr #0 align 2 {
  %3 = getelementptr inbounds nuw i8, ptr %0, i64 32
  tail call void @_Z16toku_destroy_dbtP10__toku_dbt(ptr noundef nonnull %3)
  %4 = tail call noundef zeroext i1 @_Z20toku_dbt_is_infinitePK10__toku_dbt(ptr noundef %1)
  br i1 %4, label %7, label %5

5:                                                ; preds = %2
  %6 = tail call noundef ptr @_Z14toku_clone_dbtP10__toku_dbtRKS_(ptr noundef nonnull %3, ptr noundef nonnull align 8 dereferenceable(32) %1)
  br label %7

7:                                                ; preds = %2, %5
  %.sink = phi ptr [ null, %5 ], [ %1, %2 ]
  %8 = getelementptr inbounds nuw i8, ptr %0, i64 72
  store ptr %.sink, ptr %8, align 8, !tbaa !15
  %9 = getelementptr inbounds nuw i8, ptr %0, i64 80
  store i8 0, ptr %9, align 8, !tbaa !4
  ret void
}